; Function Attrs: nounwind uwtable
define nonnull ptr @l_Lean_Compiler_LCNF_FloatLetIn_beqDecision____x40_Lean_Compiler_LCNF_FloatLetIn___hyg_63____boxed(ptr noundef %0, ptr noundef %1) #1 {
  %3 = ptrtoint ptr %0 to i64
  %4 = and i64 %3, 1
  %.not.i.i = icmp eq i64 %4, 0
  br i1 %.not.i.i, label %8, label %5

5:                                                ; preds = %2
  %6 = lshr i64 %3, 1
  %7 = trunc i64 %6 to i32
  br label %lean_obj_tag.exit.i

8:                                                ; preds = %2
  %9 = getelementptr i8, ptr %0, i64 4
  %.val.i.i = load i32, ptr %9, align 4
  %10 = lshr i32 %.val.i.i, 24
  br label %lean_obj_tag.exit.i

lean_obj_tag.exit.i:                              ; preds = %8, %5
  %.0.i.i = phi i32 [ %7, %5 ], [ %10, %8 ]
  %11 = ptrtoint ptr %1 to i64
  %12 = and i64 %11, 1
  %.not.i31.i = icmp eq i64 %12, 0
  switch i32 %.0.i.i, label %43 [
    i32 0, label %13
    i32 1, label %27
    i32 2, label %35
  ]

13:                                               ; preds = %lean_obj_tag.exit.i
  br i1 %.not.i31.i, label %17, label %14

14:                                               ; preds = %13
  %15 = lshr i64 %11, 1
  %16 = trunc i64 %15 to i32
  br label %lean_obj_tag.exit22.i

17:                                               ; preds = %13
  %18 = getelementptr i8, ptr %1, i64 4
  %.val.i21.i = load i32, ptr %18, align 4
  %19 = lshr i32 %.val.i21.i, 24
  br label %lean_obj_tag.exit22.i

lean_obj_tag.exit22.i:                            ; preds = %17, %14
  %.0.i20.i = phi i32 [ %16, %14 ], [ %19, %17 ]
  %20 = icmp eq i32 %.0.i20.i, 0
  br i1 %20, label %21, label %l_Lean_Compiler_LCNF_FloatLetIn_beqDecision____x40_Lean_Compiler_LCNF_FloatLetIn___hyg_63_.exit

21:                                               ; preds = %lean_obj_tag.exit22.i
  %22 = getelementptr inbounds nuw i8, ptr %0, i64 8
  %23 = load ptr, ptr %22, align 8, !tbaa !4
  %24 = getelementptr inbounds nuw i8, ptr %1, i64 8
  %25 = load ptr, ptr %24, align 8, !tbaa !4
  %26 = tail call zeroext i8 @lean_name_eq(ptr noundef %23, ptr noundef %25) #4
  br label %l_Lean_Compiler_LCNF_FloatLetIn_beqDecision____x40_Lean_Compiler_LCNF_FloatLetIn___hyg_63_.exit

27:                                               ; preds = %lean_obj_tag.exit.i
  br i1 %.not.i31.i, label %31, label %28

28:                                               ; preds = %27
  %29 = lshr i64 %11, 1
  %30 = trunc i64 %29 to i32
  br label %lean_obj_tag.exit26.i

31:                                               ; preds = %27
  %32 = getelementptr i8, ptr %1, i64 4
  %.val.i25.i = load i32, ptr %32, align 4
  %33 = lshr i32 %.val.i25.i, 24
  br label %lean_obj_tag.exit26.i

lean_obj_tag.exit26.i:                            ; preds = %31, %28
  %.0.i24.i = phi i32 [ %30, %28 ], [ %33, %31 ]
  %34 = icmp eq i32 %.0.i24.i, 1
  %..i = zext i1 %34 to i8
  br label %l_Lean_Compiler_LCNF_FloatLetIn_beqDecision____x40_Lean_Compiler_LCNF_FloatLetIn___hyg_63_.exit

35:                                               ; preds = %lean_obj_tag.exit.i
  br i1 %.not.i31.i, label %39, label %36

36:                                               ; preds = %35
  %37 = lshr i64 %11, 1
  %38 = trunc i64 %37 to i32
  br label %lean_obj_tag.exit30.i

39:                                               ; preds = %35
  %40 = getelementptr i8, ptr %1, i64 4
  %.val.i29.i = load i32, ptr %40, align 4
  %41 = lshr i32 %.val.i29.i, 24
  br label %lean_obj_tag.exit30.i

lean_obj_tag.exit30.i:                            ; preds = %39, %36
  %.0.i28.i = phi i32 [ %38, %36 ], [ %41, %39 ]
  %42 = icmp eq i32 %.0.i28.i, 2
  %.17.i = zext i1 %42 to i8
  br label %l_Lean_Compiler_LCNF_FloatLetIn_beqDecision____x40_Lean_Compiler_LCNF_FloatLetIn___hyg_63_.exit

43:                                               ; preds = %lean_obj_tag.exit.i
  br i1 %.not.i31.i, label %47, label %44

44:                                               ; preds = %43
  %45 = lshr i64 %11, 1
  %46 = trunc i64 %45 to i32
  br label %lean_obj_tag.exit34.i

47:                                               ; preds = %43
  %48 = getelementptr i8, ptr %1, i64 4
  %.val.i33.i = load i32, ptr %48, align 4
  %49 = lshr i32 %.val.i33.i, 24
  br label %lean_obj_tag.exit34.i

lean_obj_tag.exit34.i:                            ; preds = %47, %44
  %.0.i32.i = phi i32 [ %46, %44 ], [ %49, %47 ]
  %50 = icmp eq i32 %.0.i32.i, 3
  %.18.i = zext i1 %50 to i8
  br label %l_Lean_Compiler_LCNF_FloatLetIn_beqDecision____x40_Lean_Compiler_LCNF_FloatLetIn___hyg_63_.exit

l_Lean_Compiler_LCNF_FloatLetIn_beqDecision____x40_Lean_Compiler_LCNF_FloatLetIn___hyg_63_.exit: ; preds = %lean_obj_tag.exit22.i, %21, %lean_obj_tag.exit26.i, %lean_obj_tag.exit30.i, %lean_obj_tag.exit34.i
  %.0.i = phi i8 [ %26, %21 ], [ 0, %lean_obj_tag.exit22.i ], [ %..i, %lean_obj_tag.exit26.i ], [ %.17.i, %lean_obj_tag.exit30.i ], [ %.18.i, %lean_obj_tag.exit34.i ]
  br i1 %.not.i31.i, label %51, label %lean_dec.exit5

51:                                               ; preds = %l_Lean_Compiler_LCNF_FloatLetIn_beqDecision____x40_Lean_Compiler_LCNF_FloatLetIn___hyg_63_.exit
  %52 = load i32, ptr %1, align 4, !tbaa !8
  %53 = icmp sgt i32 %52, 1
  br i1 %53, label %54, label %56, !prof !11

54:                                               ; preds = %51
  %55 = add nsw i32 %52, -1
  store i32 %55, ptr %1, align 4, !tbaa !8
  br label %lean_dec.exit5

56:                                               ; preds = %51
  %.not.i = icmp eq i32 %52, 0
  br i1 %.not.i, label %lean_dec.exit5, label %57

57:                                               ; preds = %56
  tail call void @lean_dec_ref_cold(ptr noundef nonnull %1) #4
  br label %lean_dec.exit5

lean_dec.exit5:                                   ; preds = %57, %56, %54, %l_Lean_Compiler_LCNF_FloatLetIn_beqDecision____x40_Lean_Compiler_LCNF_FloatLetIn___hyg_63_.exit
  br i1 %.not.i.i, label %58, label %lean_dec.exit

58:                                               ; preds = %lean_dec.exit5
  %59 = load i32, ptr %0, align 4, !tbaa !8
  %60 = icmp sgt i32 %59, 1
  br i1 %60, label %61, label %63, !prof !11

61:                                               ; preds = %58
  %62 = add nsw i32 %59, -1
  store i32 %62, ptr %0, align 4, !tbaa !8
  br label %lean_dec.exit

63:                                               ; preds = %58
  %.not.i6 = icmp eq i32 %59, 0
  br i1 %.not.i6, label %lean_dec.exit, label %64

64:                                               ; preds = %63
  tail call void @lean_dec_ref_cold(ptr noundef nonnull %0) #4
  br label %lean_dec.exit

lean_dec.exit:                                    ; preds = %64, %63, %61, %lean_dec.exit5
  %65 = zext i8 %.0.i to i64
  %66 = shl nuw nsw i64 %65, 1
  %67 = or disjoint i64 %66, 1
  %68 = inttoptr i64 %67 to ptr
  ret ptr %68
}